target datalayout = "e-m:e-p270:32:32-p271:32:32-p272:64:64-i64:64-i128:128-f80:128-n8:16:32:64-S128"
target triple = "x86_64-pc-linux-gnu"

@.str.21 = private unnamed_addr constant [13 x i8] c" (no change)\00", align 1
@.str.22 = private unnamed_addr constant [3 x i8] c"->\00", align 1
@.str.23 = private unnamed_addr constant [3 x i8] c" (\00", align 1
@.str.24 = private unnamed_addr constant [2 x i8] c"-\00", align 1
@.str.25 = private unnamed_addr constant [2 x i8] c"+\00", align 1
@.str.26 = private unnamed_addr constant [2 x i8] c")\00", align 1

; Function Attrs: mustprogress nounwind uwtable
define internal void @_ZN9metaspaceL21print_word_size_deltaEP12outputStreammm(ptr noundef %0, i64 noundef %1, i64 noundef %2) #1 {
  %4 = alloca ptr, align 8
  %5 = alloca i64, align 8
  %6 = alloca i64, align 8
  store ptr %0, ptr %4, align 8
  store i64 %1, ptr %5, align 8
  store i64 %2, ptr %6, align 8
  %7 = load i64, ptr %5, align 8
  %8 = load i64, ptr %6, align 8
  %9 = icmp eq i64 %7, %8
  br i1 %9, label %10, label %14

10:                                               ; preds = %3
  %11 = load ptr, ptr %4, align 8
  %12 = load i64, ptr %5, align 8
  call void @_ZN9metaspace18print_scaled_wordsEP12outputStreammmi(ptr noundef %11, i64 noundef %12, i64 noundef 0, i32 noundef -1)
  %13 = load ptr, ptr %4, align 8
  call void (ptr, ptr, ...) @_ZN12outputStream5printEPKcz(ptr noundef nonnull align 8 dereferenceable(56) %13, ptr noundef @.str.21)
  br label %38

14:                                               ; preds = %3
  %15 = load ptr, ptr %4, align 8
  %16 = load i64, ptr %5, align 8
  call void @_ZN9metaspace18print_scaled_wordsEP12outputStreammmi(ptr noundef %15, i64 noundef %16, i64 noundef 0, i32 noundef -1)
  %17 = load ptr, ptr %4, align 8
  call void (ptr, ptr, ...) @_ZN12outputStream5printEPKcz(ptr noundef nonnull align 8 dereferenceable(56) %17, ptr noundef @.str.22)
  %18 = load ptr, ptr %4, align 8
  %19 = load i64, ptr %6, align 8
  call void @_ZN9metaspace18print_scaled_wordsEP12outputStreammmi(ptr noundef %18, i64 noundef %19, i64 noundef 0, i32 noundef -1)
  %20 = load ptr, ptr %4, align 8
  call void (ptr, ptr, ...) @_ZN12outputStream5printEPKcz(ptr noundef nonnull align 8 dereferenceable(56) %20, ptr noundef @.str.23)
  %21 = load i64, ptr %6, align 8
  %22 = load i64, ptr %5, align 8
  %23 = icmp ule i64 %21, %22
  br i1 %23, label %24, label %30

24:                                               ; preds = %14
  %25 = load ptr, ptr %4, align 8
  call void (ptr, ptr, ...) @_ZN12outputStream5printEPKcz(ptr noundef nonnull align 8 dereferenceable(56) %25, ptr noundef @.str.24)
  %26 = load ptr, ptr %4, align 8
  %27 = load i64, ptr %5, align 8
  %28 = load i64, ptr %6, align 8
  %29 = sub i64 %27, %28
  call void @_ZN9metaspace18print_scaled_wordsEP12outputStreammmi(ptr noundef %26, i64 noundef %29, i64 noundef 0, i32 noundef -1)
  br label %36

30:                                               ; preds = %14
  %31 = load ptr, ptr %4, align 8
  call void (ptr, ptr, ...) @_ZN12outputStream5printEPKcz(ptr noundef nonnull align 8 dereferenceable(56) %31, ptr noundef @.str.25)
  %32 = load ptr, ptr %4, align 8
  %33 = load i64, ptr %6, align 8
  %34 = load i64, ptr %5, align 8
  %35 = sub i64 %33, %34
  call void @_ZN9metaspace18print_scaled_wordsEP12outputStreammmi(ptr noundef %32, i64 noundef %35, i64 noundef 0, i32 noundef -1)
  br label %36

36:                                               ; preds = %30, %24
  %37 = load ptr, ptr %4, align 8
  call void (ptr, ptr, ...) @_ZN12outputStream5printEPKcz(ptr noundef nonnull align 8 dereferenceable(56) %37, ptr noundef @.str.26)
  br label %38

38:                                               ; preds = %36, %10
  ret void
}