; Function Attrs: mustprogress nounwind uwtable
define internal fastcc void @_ZN9metaspaceL21print_word_size_deltaEP12outputStreammm(ptr noundef %0, i64 noundef %1, i64 noundef %2) unnamed_addr #0 {
  %4 = icmp eq i64 %1, %2
  tail call void @_ZN9metaspace18print_scaled_wordsEP12outputStreammmi(ptr noundef %0, i64 noundef %1, i64 noundef 0, i32 noundef -1) #10
  br i1 %4, label %11, label %5

5:                                                ; preds = %3
  tail call void (ptr, ptr, ...) @_ZN12outputStream5printEPKcz(ptr noundef nonnull align 8 dereferenceable(56) %0, ptr noundef nonnull @.str.22) #10
  tail call void @_ZN9metaspace18print_scaled_wordsEP12outputStreammmi(ptr noundef nonnull %0, i64 noundef %2, i64 noundef 0, i32 noundef -1) #10
  tail call void (ptr, ptr, ...) @_ZN12outputStream5printEPKcz(ptr noundef nonnull align 8 dereferenceable(56) %0, ptr noundef nonnull @.str.23) #10
  %.not = icmp ugt i64 %2, %1
  br i1 %.not, label %8, label %6

6:                                                ; preds = %5
  tail call void (ptr, ptr, ...) @_ZN12outputStream5printEPKcz(ptr noundef nonnull align 8 dereferenceable(56) %0, ptr noundef nonnull @.str.24) #10
  %7 = sub i64 %1, %2
  br label %10

8:                                                ; preds = %5
  tail call void (ptr, ptr, ...) @_ZN12outputStream5printEPKcz(ptr noundef nonnull align 8 dereferenceable(56) %0, ptr noundef nonnull @.str.25) #10
  %9 = sub i64 %2, %1
  br label %10

10:                                               ; preds = %8, %6
  %.sink = phi i64 [ %9, %8 ], [ %7, %6 ]
  tail call void @_ZN9metaspace18print_scaled_wordsEP12outputStreammmi(ptr noundef nonnull %0, i64 noundef %.sink, i64 noundef 0, i32 noundef -1) #10
  br label %11

11:                                               ; preds = %3, %10
  %.str.26.sink = phi ptr [ @.str.26, %10 ], [ @.str.21, %3 ]
  tail call void (ptr, ptr, ...) @_ZN12outputStream5printEPKcz(ptr noundef nonnull align 8 dereferenceable(56) %0, ptr noundef nonnull %.str.26.sink) #10
  ret void
}